target datalayout = "e-m:e-p270:32:32-p271:32:32-p272:64:64-i64:64-i128:128-f80:128-n8:16:32:64-S128"
target triple = "x86_64-pc-linux-gnu"

%struct.jpeg_decompress_struct = type { ptr, ptr, ptr, ptr, i32, i32, ptr, i32, i32, i32, i32, i32, i32, i32, double, i32, i32, i32, i32, i32, i32, i32, i32, i32, i32, i32, i32, i32, i32, i32, i32, i32, i32, ptr, i32, i32, i32, i32, i32, ptr, [4 x ptr], [4 x ptr], [4 x ptr], i32, ptr, i32, i32, [16 x i8], [16 x i8], [16 x i8], i32, i32, i8, i8, i8, i16, i16, i32, i8, i32, ptr, i32, i32, i32, i32, ptr, i32, [4 x ptr], i32, i32, i32, [10 x i32], i32, i32, i32, i32, i32, ptr, ptr, ptr, ptr, ptr, ptr, ptr, ptr, ptr, ptr, ptr }
%struct.jpeg_error_mgr = type { ptr, ptr, ptr, ptr, ptr, i32, %union.anon, i32, i64, ptr, i32, ptr, i32, i32 }
%union.anon = type { [8 x i32], [48 x i8] }
%struct.jpeg_input_controller = type { ptr, ptr, ptr, ptr, i32, i32 }

; Function Attrs: nounwind uwtable
define i32 @jpeg_has_multiple_scans(ptr noundef %0) #0 {
  %2 = alloca ptr, align 8
  store ptr %0, ptr %2, align 8, !tbaa !3
  %3 = load ptr, ptr %2, align 8, !tbaa !3
  %4 = getelementptr inbounds nuw %struct.jpeg_decompress_struct, ptr %3, i32 0, i32 5
  %5 = load i32, ptr %4, align 4, !tbaa !51
  %6 = icmp slt i32 %5, 202
  br i1 %6, label %12, label %7

7:                                                ; preds = %1
  %8 = load ptr, ptr %2, align 8, !tbaa !3
  %9 = getelementptr inbounds nuw %struct.jpeg_decompress_struct, ptr %8, i32 0, i32 5
  %10 = load i32, ptr %9, align 4, !tbaa !51
  %11 = icmp sgt i32 %10, 210
  br i1 %11, label %12, label %31

12:                                               ; preds = %7, %1
  %13 = load ptr, ptr %2, align 8, !tbaa !3
  %14 = getelementptr inbounds nuw %struct.jpeg_decompress_struct, ptr %13, i32 0, i32 0
  %15 = load ptr, ptr %14, align 8, !tbaa !35
  %16 = getelementptr inbounds nuw %struct.jpeg_error_mgr, ptr %15, i32 0, i32 5
  store i32 20, ptr %16, align 8, !tbaa !36
  %17 = load ptr, ptr %2, align 8, !tbaa !3
  %18 = getelementptr inbounds nuw %struct.jpeg_decompress_struct, ptr %17, i32 0, i32 5
  %19 = load i32, ptr %18, align 4, !tbaa !51
  %20 = load ptr, ptr %2, align 8, !tbaa !3
  %21 = getelementptr inbounds nuw %struct.jpeg_decompress_struct, ptr %20, i32 0, i32 0
  %22 = load ptr, ptr %21, align 8, !tbaa !35
  %23 = getelementptr inbounds nuw %struct.jpeg_error_mgr, ptr %22, i32 0, i32 6
  %24 = getelementptr inbounds [8 x i32], ptr %23, i64 0, i64 0
  store i32 %19, ptr %24, align 4, !tbaa !38
  %25 = load ptr, ptr %2, align 8, !tbaa !3
  %26 = getelementptr inbounds nuw %struct.jpeg_decompress_struct, ptr %25, i32 0, i32 0
  %27 = load ptr, ptr %26, align 8, !tbaa !35
  %28 = getelementptr inbounds nuw %struct.jpeg_error_mgr, ptr %27, i32 0, i32 0
  %29 = load ptr, ptr %28, align 8, !tbaa !39
  %30 = load ptr, ptr %2, align 8, !tbaa !3
  call void %29(ptr noundef %30)
  br label %31

31:                                               ; preds = %12, %7
  %32 = load ptr, ptr %2, align 8, !tbaa !3
  %33 = getelementptr inbounds nuw %struct.jpeg_decompress_struct, ptr %32, i32 0, i32 81
  %34 = load ptr, ptr %33, align 8, !tbaa !55
  %35 = getelementptr inbounds nuw %struct.jpeg_input_controller, ptr %34, i32 0, i32 4
  %36 = load i32, ptr %35, align 8, !tbaa !91
  ret i32 %36
}