; Function Attrs: nounwind uwtable
define i32 @jpeg_has_multiple_scans(ptr noundef %0) local_unnamed_addr #0 {
  %2 = getelementptr inbounds nuw i8, ptr %0, i64 36
  %3 = load i32, ptr %2, align 4, !tbaa !42
  %4 = add i32 %3, -211
  %or.cond = icmp ult i32 %4, -9
  br i1 %or.cond, label %5, label %11

5:                                                ; preds = %1
  %6 = load ptr, ptr %0, align 8, !tbaa !30
  %7 = getelementptr inbounds nuw i8, ptr %6, i64 40
  store i32 20, ptr %7, align 8, !tbaa !31
  %8 = getelementptr inbounds nuw i8, ptr %6, i64 44
  store i32 %3, ptr %8, align 4, !tbaa !34
  %9 = load ptr, ptr %0, align 8, !tbaa !30
  %10 = load ptr, ptr %9, align 8, !tbaa !35
  tail call void %10(ptr noundef nonnull %0) #3
  br label %11

11:                                               ; preds = %1, %5
  %12 = getelementptr inbounds nuw i8, ptr %0, i64 576
  %13 = load ptr, ptr %12, align 8, !tbaa !46
  %14 = getelementptr inbounds nuw i8, ptr %13, i64 32
  %15 = load i32, ptr %14, align 8, !tbaa !82
  ret i32 %15
}